; ModuleID = '21/14.c'
source_filename = "21/14.c"
target datalayout = "e-m:e-p270:32:32-p271:32:32-p272:64:64-i64:64-f80:128-n8:16:32:64-S128"
target triple = "x86_64-pc-linux-gnu"

@.str = private unnamed_addr constant [3 x i8] c"%d\00", align 1
@.str.1 = private unnamed_addr constant [7 x i8] c"%d,%d\0A\00", align 1
@.str.2 = private unnamed_addr constant [4 x i8] c"%d\0A\00", align 1

; Function Attrs: noinline nounwind uwtable
define dso_local void @main() #0 {
  %1 = alloca i32, align 4
  %2 = alloca i32, align 4
  %3 = alloca i32, align 4
  %4 = alloca i32, align 4
  %5 = alloca [100 x i32], align 16
  %6 = alloca float, align 4
  %7 = bitcast [100 x i32]* %5 to i8*
  call void @llvm.memset.p0i8.i64(i8* align 16 %7, i8 0, i64 400, i1 false)
  store float 0.000000e+00, float* %6, align 4
  %8 = call i32 (i8*, ...) @__isoc99_scanf(i8* getelementptr inbounds ([3 x i8], [3 x i8]* @.str, i64 0, i64 0), i32* %1)
  store i32 0, i32* %2, align 4
  br label %9

9:                                                ; preds = %26, %0
  %10 = load i32, i32* %2, align 4
  %11 = load i32, i32* %1, align 4
  %12 = sub nsw i32 %11, 1
  %13 = icmp sle i32 %10, %12
  br i1 %13, label %14, label %29

14:                                               ; preds = %9
  %15 = load i32, i32* %2, align 4
  %16 = sext i32 %15 to i64
  %17 = getelementptr inbounds [100 x i32], [100 x i32]* %5, i64 0, i64 %16
  %18 = call i32 (i8*, ...) @__isoc99_scanf(i8* getelementptr inbounds ([3 x i8], [3 x i8]* @.str, i64 0, i64 0), i32* %17)
  %19 = load float, float* %6, align 4
  %20 = load i32, i32* %2, align 4
  %21 = sext i32 %20 to i64
  %22 = getelementptr inbounds [100 x i32], [100 x i32]* %5, i64 0, i64 %21
  %23 = load i32, i32* %22, align 4
  %24 = sitofp i32 %23 to float
  %25 = fadd float %19, %24
  store float %25, float* %6, align 4
  br label %26

26:                                               ; preds = %14
  %27 = load i32, i32* %2, align 4
  %28 = add nsw i32 %27, 1
  store i32 %28, i32* %2, align 4
  br label %9

29:                                               ; preds = %9
  %30 = load float, float* %6, align 4
  %31 = load i32, i32* %1, align 4
  %32 = sitofp i32 %31 to float
  %33 = fdiv float %30, %32
  store float %33, float* %6, align 4
  store i32 0, i32* %2, align 4
  br label %34

34:                                               ; preds = %78, %29
  %35 = load i32, i32* %2, align 4
  %36 = load i32, i32* %1, align 4
  %37 = sub nsw i32 %36, 2
  %38 = icmp sle i32 %35, %37
  br i1 %38, label %39, label %81

39:                                               ; preds = %34
  store i32 0, i32* %3, align 4
  br label %40

40:                                               ; preds = %74, %39
  %41 = load i32, i32* %3, align 4
  %42 = load i32, i32* %2, align 4
  %43 = icmp sle i32 %41, %42
  br i1 %43, label %44, label %77

44:                                               ; preds = %40
  %45 = load i32, i32* %3, align 4
  %46 = add nsw i32 %45, 1
  %47 = sext i32 %46 to i64
  %48 = getelementptr inbounds [100 x i32], [100 x i32]* %5, i64 0, i64 %47
  %49 = load i32, i32* %48, align 4
  %50 = load i32, i32* %3, align 4
  %51 = sext i32 %50 to i64
  %52 = getelementptr inbounds [100 x i32], [100 x i32]* %5, i64 0, i64 %51
  %53 = load i32, i32* %52, align 4
  %54 = icmp slt i32 %49, %53
  br i1 %54, label %55, label %73

55:                                               ; preds = %44
  %56 = load i32, i32* %3, align 4
  %57 = add nsw i32 %56, 1
  %58 = sext i32 %57 to i64
  %59 = getelementptr inbounds [100 x i32], [100 x i32]* %5, i64 0, i64 %58
  %60 = load i32, i32* %59, align 4
  store i32 %60, i32* %4, align 4
  %61 = load i32, i32* %3, align 4
  %62 = sext i32 %61 to i64
  %63 = getelementptr inbounds [100 x i32], [100 x i32]* %5, i64 0, i64 %62
  %64 = load i32, i32* %63, align 4
  %65 = load i32, i32* %3, align 4
  %66 = add nsw i32 %65, 1
  %67 = sext i32 %66 to i64
  %68 = getelementptr inbounds [100 x i32], [100 x i32]* %5, i64 0, i64 %67
  store i32 %64, i32* %68, align 4
  %69 = load i32, i32* %4, align 4
  %70 = load i32, i32* %3, align 4
  %71 = sext i32 %70 to i64
  %72 = getelementptr inbounds [100 x i32], [100 x i32]* %5, i64 0, i64 %71
  store i32 %69, i32* %72, align 4
  br label %73

73:                                               ; preds = %55, %44
  br label %74

74:                                               ; preds = %73
  %75 = load i32, i32* %3, align 4
  %76 = add nsw i32 %75, 1
  store i32 %76, i32* %3, align 4
  br label %40

77:                                               ; preds = %40
  br label %78

78:                                               ; preds = %77
  %79 = load i32, i32* %2, align 4
  %80 = add nsw i32 %79, 1
  store i32 %80, i32* %2, align 4
  br label %34

81:                                               ; preds = %34
  %82 = load float, float* %6, align 4
  %83 = getelementptr inbounds [100 x i32], [100 x i32]* %5, i64 0, i64 0
  %84 = load i32, i32* %83, align 16
  %85 = sitofp i32 %84 to float
  %86 = fsub float %82, %85
  %87 = load i32, i32* %1, align 4
  %88 = sub nsw i32 %87, 1
  %89 = sext i32 %88 to i64
  %90 = getelementptr inbounds [100 x i32], [100 x i32]* %5, i64 0, i64 %89
  %91 = load i32, i32* %90, align 4
  %92 = sitofp i32 %91 to float
  %93 = load float, float* %6, align 4
  %94 = fsub float %92, %93
  %95 = fcmp oeq float %86, %94
  br i1 %95, label %96, label %105

96:                                               ; preds = %81
  %97 = getelementptr inbounds [100 x i32], [100 x i32]* %5, i64 0, i64 0
  %98 = load i32, i32* %97, align 16
  %99 = load i32, i32* %1, align 4
  %100 = sub nsw i32 %99, 1
  %101 = sext i32 %100 to i64
  %102 = getelementptr inbounds [100 x i32], [100 x i32]* %5, i64 0, i64 %101
  %103 = load i32, i32* %102, align 4
  %104 = call i32 (i8*, ...) @printf(i8* getelementptr inbounds ([7 x i8], [7 x i8]* @.str.1, i64 0, i64 0), i32 %98, i32 %103)
  br label %132

105:                                              ; preds = %81
  %106 = load float, float* %6, align 4
  %107 = getelementptr inbounds [100 x i32], [100 x i32]* %5, i64 0, i64 0
  %108 = load i32, i32* %107, align 16
  %109 = sitofp i32 %108 to float
  %110 = fsub float %106, %109
  %111 = load i32, i32* %1, align 4
  %112 = sub nsw i32 %111, 1
  %113 = sext i32 %112 to i64
  %114 = getelementptr inbounds [100 x i32], [100 x i32]* %5, i64 0, i64 %113
  %115 = load i32, i32* %114, align 4
  %116 = sitofp i32 %115 to float
  %117 = load float, float* %6, align 4
  %118 = fsub float %116, %117
  %119 = fcmp ogt float %110, %118
  br i1 %119, label %120, label %123

120:                                              ; preds = %105
  %121 = getelementptr inbounds [100 x i32], [100 x i32]* %5, i64 0, i64 0
  %122 = load i32, i32* %121, align 16
  br label %129

123:                                              ; preds = %105
  %124 = load i32, i32* %1, align 4
  %125 = sub nsw i32 %124, 1
  %126 = sext i32 %125 to i64
  %127 = getelementptr inbounds [100 x i32], [100 x i32]* %5, i64 0, i64 %126
  %128 = load i32, i32* %127, align 4
  br label %129

129:                                              ; preds = %123, %120
  %130 = phi i32 [ %122, %120 ], [ %128, %123 ]
  %131 = call i32 (i8*, ...) @printf(i8* getelementptr inbounds ([4 x i8], [4 x i8]* @.str.2, i64 0, i64 0), i32 %130)
  br label %132

132:                                              ; preds = %129, %96
  ret void
}

; Function Attrs: argmemonly nounwind willreturn
declare void @llvm.memset.p0i8.i64(i8* nocapture writeonly, i8, i64, i1 immarg) #1

declare dso_local i32 @__isoc99_scanf(i8*, ...) #2

declare dso_local i32 @printf(i8*, ...) #2


!llvm.module.flags = !{!0}
!llvm.ident = !{!1}

!0 = !{i32 1, !"wchar_size", i32 4}
!1 = !{!"clang version 10.0.0-4ubuntu1 "}
