; ModuleID = 'source-C-CXX/20/14.c'
source_filename = "source-C-CXX/20/14.c"
target datalayout = "e-m:e-p270:32:32-p271:32:32-p272:64:64-i64:64-f80:128-n8:16:32:64-S128"
target triple = "x86_64-pc-linux-gnu"

@.str = private unnamed_addr constant [3 x i8] c"%d\00", align 1
@.str.1 = private unnamed_addr constant [7 x i8] c"%d,%d\0A\00", align 1
@.str.2 = private unnamed_addr constant [4 x i8] c"%d\0A\00", align 1

; Function Attrs: nofree nounwind sspstrong uwtable
define dso_local void @main() local_unnamed_addr #0 {
  %1 = alloca i32, align 4
  %2 = alloca [100 x i32], align 16
  %3 = bitcast i32* %1 to i8*
  call void @llvm.lifetime.start.p0i8(i64 4, i8* nonnull %3) #4
  %4 = bitcast [100 x i32]* %2 to i8*
  call void @llvm.lifetime.start.p0i8(i64 400, i8* nonnull %4) #4
  call void @llvm.memset.p0i8.i64(i8* noundef nonnull align 16 dereferenceable(400) %4, i8 0, i64 400, i1 false)
  %5 = call i32 (i8*, ...) @__isoc99_scanf(i8* getelementptr inbounds ([3 x i8], [3 x i8]* @.str, i64 0, i64 0), i32* nonnull %1)
  %6 = load i32, i32* %1, align 4, !tbaa !5
  %7 = icmp sgt i32 %6, 0
  br i1 %7, label %11, label %8

8:                                                ; preds = %0
  %9 = sitofp i32 %6 to float
  %10 = fdiv float 0.000000e+00, %9
  br label %70

11:                                               ; preds = %0, %11
  %12 = phi i64 [ %19, %11 ], [ 0, %0 ]
  %13 = phi float [ %18, %11 ], [ 0.000000e+00, %0 ]
  %14 = getelementptr inbounds [100 x i32], [100 x i32]* %2, i64 0, i64 %12
  %15 = call i32 (i8*, ...) @__isoc99_scanf(i8* getelementptr inbounds ([3 x i8], [3 x i8]* @.str, i64 0, i64 0), i32* nonnull %14)
  %16 = load i32, i32* %14, align 4, !tbaa !5
  %17 = sitofp i32 %16 to float
  %18 = fadd float %13, %17
  %19 = add nuw nsw i64 %12, 1
  %20 = load i32, i32* %1, align 4, !tbaa !5
  %21 = sext i32 %20 to i64
  %22 = icmp slt i64 %19, %21
  br i1 %22, label %11, label %23, !llvm.loop !9

23:                                               ; preds = %11
  %24 = sitofp i32 %20 to float
  %25 = fdiv float %18, %24
  %26 = icmp slt i32 %20, 2
  br i1 %26, label %70, label %27

27:                                               ; preds = %23
  %28 = zext i32 %20 to i64
  %29 = getelementptr inbounds [100 x i32], [100 x i32]* %2, i64 0, i64 0
  br label %30

30:                                               ; preds = %27, %66
  %31 = phi i64 [ 0, %27 ], [ %69, %66 ]
  %32 = phi i64 [ 1, %27 ], [ %67, %66 ]
  %33 = add i64 %31, 1
  %34 = load i32, i32* %29, align 16, !tbaa !5
  %35 = and i64 %33, 1
  %36 = icmp eq i64 %31, 0
  br i1 %36, label %55, label %37

37:                                               ; preds = %30
  %38 = and i64 %33, -2
  br label %39

39:                                               ; preds = %93, %37
  %40 = phi i32 [ %34, %37 ], [ %94, %93 ]
  %41 = phi i64 [ 0, %37 ], [ %51, %93 ]
  %42 = phi i64 [ %38, %37 ], [ %95, %93 ]
  %43 = or i64 %41, 1
  %44 = getelementptr inbounds [100 x i32], [100 x i32]* %2, i64 0, i64 %43
  %45 = load i32, i32* %44, align 4, !tbaa !5
  %46 = icmp slt i32 %45, %40
  br i1 %46, label %47, label %49

47:                                               ; preds = %39
  %48 = getelementptr inbounds [100 x i32], [100 x i32]* %2, i64 0, i64 %41
  store i32 %40, i32* %44, align 4, !tbaa !5
  store i32 %45, i32* %48, align 8, !tbaa !5
  br label %49

49:                                               ; preds = %39, %47
  %50 = phi i32 [ %45, %39 ], [ %40, %47 ]
  %51 = add nuw nsw i64 %41, 2
  %52 = getelementptr inbounds [100 x i32], [100 x i32]* %2, i64 0, i64 %51
  %53 = load i32, i32* %52, align 8, !tbaa !5
  %54 = icmp slt i32 %53, %50
  br i1 %54, label %91, label %93

55:                                               ; preds = %93, %30
  %56 = phi i32 [ %34, %30 ], [ %94, %93 ]
  %57 = phi i64 [ 0, %30 ], [ %51, %93 ]
  %58 = icmp eq i64 %35, 0
  br i1 %58, label %66, label %59

59:                                               ; preds = %55
  %60 = add nuw nsw i64 %57, 1
  %61 = getelementptr inbounds [100 x i32], [100 x i32]* %2, i64 0, i64 %60
  %62 = load i32, i32* %61, align 4, !tbaa !5
  %63 = icmp slt i32 %62, %56
  br i1 %63, label %64, label %66

64:                                               ; preds = %59
  %65 = getelementptr inbounds [100 x i32], [100 x i32]* %2, i64 0, i64 %57
  store i32 %56, i32* %61, align 4, !tbaa !5
  store i32 %62, i32* %65, align 4, !tbaa !5
  br label %66

66:                                               ; preds = %64, %59, %55
  %67 = add nuw nsw i64 %32, 1
  %68 = icmp eq i64 %67, %28
  %69 = add i64 %31, 1
  br i1 %68, label %70, label %30, !llvm.loop !11

70:                                               ; preds = %66, %8, %23
  %71 = phi float [ %10, %8 ], [ %25, %23 ], [ %25, %66 ]
  %72 = phi i32 [ %6, %8 ], [ %20, %23 ], [ %20, %66 ]
  %73 = getelementptr inbounds [100 x i32], [100 x i32]* %2, i64 0, i64 0
  %74 = load i32, i32* %73, align 16, !tbaa !5
  %75 = sitofp i32 %74 to float
  %76 = fsub float %71, %75
  %77 = add nsw i32 %72, -1
  %78 = sext i32 %77 to i64
  %79 = getelementptr inbounds [100 x i32], [100 x i32]* %2, i64 0, i64 %78
  %80 = load i32, i32* %79, align 4, !tbaa !5
  %81 = sitofp i32 %80 to float
  %82 = fsub float %81, %71
  %83 = fcmp oeq float %76, %82
  br i1 %83, label %84, label %86

84:                                               ; preds = %70
  %85 = call i32 (i8*, ...) @printf(i8* nonnull dereferenceable(1) getelementptr inbounds ([7 x i8], [7 x i8]* @.str.1, i64 0, i64 0), i32 %74, i32 %80)
  br label %90

86:                                               ; preds = %70
  %87 = fcmp ogt float %76, %82
  %88 = select i1 %87, i32 %74, i32 %80
  %89 = call i32 (i8*, ...) @printf(i8* nonnull dereferenceable(1) getelementptr inbounds ([4 x i8], [4 x i8]* @.str.2, i64 0, i64 0), i32 %88)
  br label %90

90:                                               ; preds = %86, %84
  call void @llvm.lifetime.end.p0i8(i64 400, i8* nonnull %4) #4
  call void @llvm.lifetime.end.p0i8(i64 4, i8* nonnull %3) #4
  ret void

91:                                               ; preds = %49
  %92 = getelementptr inbounds [100 x i32], [100 x i32]* %2, i64 0, i64 %43
  store i32 %50, i32* %52, align 8, !tbaa !5
  store i32 %53, i32* %92, align 4, !tbaa !5
  br label %93

93:                                               ; preds = %91, %49
  %94 = phi i32 [ %53, %49 ], [ %50, %91 ]
  %95 = add i64 %42, -2
  %96 = icmp eq i64 %95, 0
  br i1 %96, label %55, label %39, !llvm.loop !12
}

; Function Attrs: argmemonly mustprogress nofree nosync nounwind willreturn
declare void @llvm.lifetime.start.p0i8(i64 immarg, i8* nocapture) #1

; Function Attrs: argmemonly mustprogress nofree nounwind willreturn writeonly
declare void @llvm.memset.p0i8.i64(i8* nocapture writeonly, i8, i64, i1 immarg) #2

; Function Attrs: nofree nounwind
declare noundef i32 @__isoc99_scanf(i8* nocapture noundef readonly, ...) local_unnamed_addr #3

; Function Attrs: nofree nounwind
declare noundef i32 @printf(i8* nocapture noundef readonly, ...) local_unnamed_addr #3

; Function Attrs: argmemonly mustprogress nofree nosync nounwind willreturn
declare void @llvm.lifetime.end.p0i8(i64 immarg, i8* nocapture) #1


!llvm.module.flags = !{!0, !1, !2, !3}
!llvm.ident = !{!4}

!0 = !{i32 1, !"wchar_size", i32 4}
!1 = !{i32 7, !"PIC Level", i32 2}
!2 = !{i32 7, !"PIE Level", i32 2}
!3 = !{i32 7, !"uwtable", i32 1}
!4 = !{!"clang version 13.0.0"}
!5 = !{!6, !6, i64 0}
!6 = !{!"int", !7, i64 0}
!7 = !{!"omnipotent char", !8, i64 0}
!8 = !{!"Simple C/C++ TBAA"}
!9 = distinct !{!9, !10}
!10 = !{!"llvm.loop.mustprogress"}
!11 = distinct !{!11, !10}
!12 = distinct !{!12, !10}
